; ModuleID = 'source-C-CXX/2/2885.c'
source_filename = "source-C-CXX/2/2885.c"
target datalayout = "e-m:e-p270:32:32-p271:32:32-p272:64:64-i64:64-f80:128-n8:16:32:64-S128"
target triple = "x86_64-pc-linux-gnu"

@.str = private unnamed_addr constant [6 x i8] c"%d %d\00", align 1
@.str.1 = private unnamed_addr constant [3 x i8] c"%d\00", align 1
@.str.2 = private unnamed_addr constant [4 x i8] c"yes\00", align 1
@.str.3 = private unnamed_addr constant [3 x i8] c"no\00", align 1

; Function Attrs: nofree nounwind sspstrong uwtable
define dso_local i32 @main() local_unnamed_addr #0 {
  %1 = alloca i32, align 4
  %2 = alloca i32, align 4
  %3 = alloca [1000 x i32], align 16
  %4 = bitcast i32* %1 to i8*
  call void @llvm.lifetime.start.p0i8(i64 4, i8* nonnull %4) #3
  %5 = bitcast i32* %2 to i8*
  call void @llvm.lifetime.start.p0i8(i64 4, i8* nonnull %5) #3
  %6 = bitcast [1000 x i32]* %3 to i8*
  call void @llvm.lifetime.start.p0i8(i64 4000, i8* nonnull %6) #3
  %7 = call i32 (i8*, ...) @__isoc99_scanf(i8* getelementptr inbounds ([6 x i8], [6 x i8]* @.str, i64 0, i64 0), i32* nonnull %1, i32* nonnull %2)
  %8 = load i32, i32* %1, align 4, !tbaa !5
  %9 = icmp sgt i32 %8, 0
  br i1 %9, label %10, label %18

10:                                               ; preds = %0, %10
  %11 = phi i64 [ %14, %10 ], [ 0, %0 ]
  %12 = getelementptr inbounds [1000 x i32], [1000 x i32]* %3, i64 0, i64 %11
  %13 = call i32 (i8*, ...) @__isoc99_scanf(i8* getelementptr inbounds ([3 x i8], [3 x i8]* @.str.1, i64 0, i64 0), i32* nonnull %12)
  %14 = add nuw nsw i64 %11, 1
  %15 = load i32, i32* %1, align 4, !tbaa !5
  %16 = sext i32 %15 to i64
  %17 = icmp slt i64 %14, %16
  br i1 %17, label %10, label %18, !llvm.loop !9

18:                                               ; preds = %10, %0
  %19 = phi i32 [ %8, %0 ], [ %15, %10 ]
  br label %20

20:                                               ; preds = %18, %60
  %21 = phi i32 [ %61, %60 ], [ %19, %18 ]
  %22 = phi i64 [ %29, %60 ], [ 0, %18 ]
  %23 = phi i64 [ %65, %60 ], [ 1, %18 ]
  %24 = phi i32 [ %57, %60 ], [ undef, %18 ]
  %25 = add nsw i32 %21, -1
  %26 = sext i32 %25 to i64
  %27 = icmp slt i64 %22, %26
  br i1 %27, label %28, label %66

28:                                               ; preds = %20
  %29 = add nuw nsw i64 %22, 1
  %30 = getelementptr inbounds [1000 x i32], [1000 x i32]* %3, i64 0, i64 %22
  %31 = trunc i64 %29 to i32
  %32 = icmp sgt i32 %21, %31
  br i1 %32, label %33, label %56

33:                                               ; preds = %28, %51
  %34 = phi i32 [ %52, %51 ], [ %21, %28 ]
  %35 = phi i64 [ %53, %51 ], [ %23, %28 ]
  %36 = load i32, i32* %30, align 4, !tbaa !5
  %37 = getelementptr inbounds [1000 x i32], [1000 x i32]* %3, i64 0, i64 %35
  %38 = load i32, i32* %37, align 4, !tbaa !5
  %39 = add nsw i32 %38, %36
  %40 = load i32, i32* %2, align 4, !tbaa !5
  %41 = icmp eq i32 %39, %40
  br i1 %41, label %42, label %44

42:                                               ; preds = %33
  %43 = call i32 (i8*, ...) @printf(i8* nonnull dereferenceable(1) getelementptr inbounds ([4 x i8], [4 x i8]* @.str.2, i64 0, i64 0))
  br label %56

44:                                               ; preds = %33
  %45 = add nsw i32 %34, -2
  %46 = zext i32 %45 to i64
  %47 = icmp eq i64 %22, %46
  br i1 %47, label %48, label %51

48:                                               ; preds = %44
  %49 = call i32 (i8*, ...) @printf(i8* nonnull dereferenceable(1) getelementptr inbounds ([3 x i8], [3 x i8]* @.str.3, i64 0, i64 0))
  %50 = load i32, i32* %1, align 4, !tbaa !5
  br label %51

51:                                               ; preds = %48, %44
  %52 = phi i32 [ %50, %48 ], [ %34, %44 ]
  %53 = add nuw nsw i64 %35, 1
  %54 = trunc i64 %53 to i32
  %55 = icmp sgt i32 %52, %54
  br i1 %55, label %33, label %56, !llvm.loop !11

56:                                               ; preds = %51, %28, %42
  %57 = phi i32 [ %39, %42 ], [ %24, %28 ], [ %39, %51 ]
  %58 = load i32, i32* %2, align 4, !tbaa !5
  %59 = icmp eq i32 %57, %58
  br i1 %59, label %66, label %60

60:                                               ; preds = %56
  %61 = load i32, i32* %1, align 4, !tbaa !5
  %62 = add nsw i32 %61, -2
  %63 = zext i32 %62 to i64
  %64 = icmp eq i64 %22, %63
  %65 = add nuw nsw i64 %23, 1
  br i1 %64, label %66, label %20, !llvm.loop !12

66:                                               ; preds = %56, %60, %20
  call void @llvm.lifetime.end.p0i8(i64 4000, i8* nonnull %6) #3
  call void @llvm.lifetime.end.p0i8(i64 4, i8* nonnull %5) #3
  call void @llvm.lifetime.end.p0i8(i64 4, i8* nonnull %4) #3
  ret i32 0
}

; Function Attrs: argmemonly mustprogress nofree nosync nounwind willreturn
declare void @llvm.lifetime.start.p0i8(i64 immarg, i8* nocapture) #1

; Function Attrs: nofree nounwind
declare noundef i32 @__isoc99_scanf(i8* nocapture noundef readonly, ...) local_unnamed_addr #2

; Function Attrs: argmemonly mustprogress nofree nosync nounwind willreturn
declare void @llvm.lifetime.end.p0i8(i64 immarg, i8* nocapture) #1

; Function Attrs: nofree nounwind
declare noundef i32 @printf(i8* nocapture noundef readonly, ...) local_unnamed_addr #2


!llvm.module.flags = !{!0, !1, !2, !3}
!llvm.ident = !{!4}

!0 = !{i32 1, !"wchar_size", i32 4}
!1 = !{i32 7, !"PIC Level", i32 2}
!2 = !{i32 7, !"PIE Level", i32 2}
!3 = !{i32 7, !"uwtable", i32 1}
!4 = !{!"clang version 13.0.0"}
!5 = !{!6, !6, i64 0}
!6 = !{!"int", !7, i64 0}
!7 = !{!"omnipotent char", !8, i64 0}
!8 = !{!"Simple C/C++ TBAA"}
!9 = distinct !{!9, !10}
!10 = !{!"llvm.loop.mustprogress"}
!11 = distinct !{!11, !10}
!12 = distinct !{!12, !10}
